target datalayout = "e-m:e-p270:32:32-p271:32:32-p272:64:64-i64:64-i128:128-f80:128-n8:16:32:64-S128"
target triple = "x86_64-unknown-linux-gnu"

; Function Attrs: mustprogress nounwind uwtable
define internal noundef i32 @_ZN5arrowL9bit_widthENS_4Type4typeE(i32 noundef %type_id) #1 {
entry:
  %retval = alloca i32, align 4
  %type_id.addr = alloca i32, align 4
  store i32 %type_id, ptr %type_id.addr, align 4
  %0 = load i32, ptr %type_id.addr, align 4
  switch i32 %0, label %sw.default [
    i32 1, label %sw.bb
    i32 2, label %sw.bb1
    i32 3, label %sw.bb1
    i32 4, label %sw.bb2
    i32 5, label %sw.bb2
    i32 6, label %sw.bb3
    i32 7, label %sw.bb3
    i32 16, label %sw.bb3
    i32 19, label %sw.bb3
    i32 8, label %sw.bb4
    i32 9, label %sw.bb4
    i32 17, label %sw.bb4
    i32 20, label %sw.bb4
    i32 18, label %sw.bb4
    i32 33, label %sw.bb4
    i32 10, label %sw.bb5
    i32 11, label %sw.bb6
    i32 12, label %sw.bb7
    i32 21, label %sw.bb8
    i32 22, label %sw.bb9
    i32 37, label %sw.bb10
    i32 23, label %sw.bb11
    i32 24, label %sw.bb12
  ]

sw.bb:                                            ; preds = %entry
  store i32 1, ptr %retval, align 4
  br label %return

sw.bb1:                                           ; preds = %entry, %entry
  store i32 8, ptr %retval, align 4
  br label %return

sw.bb2:                                           ; preds = %entry, %entry
  store i32 16, ptr %retval, align 4
  br label %return

sw.bb3:                                           ; preds = %entry, %entry, %entry, %entry
  store i32 32, ptr %retval, align 4
  br label %return

sw.bb4:                                           ; preds = %entry, %entry, %entry, %entry, %entry, %entry
  store i32 64, ptr %retval, align 4
  br label %return

sw.bb5:                                           ; preds = %entry
  store i32 16, ptr %retval, align 4
  br label %return

sw.bb6:                                           ; preds = %entry
  store i32 32, ptr %retval, align 4
  br label %return

sw.bb7:                                           ; preds = %entry
  store i32 64, ptr %retval, align 4
  br label %return

sw.bb8:                                           ; preds = %entry
  store i32 32, ptr %retval, align 4
  br label %return

sw.bb9:                                           ; preds = %entry
  store i32 64, ptr %retval, align 4
  br label %return

sw.bb10:                                          ; preds = %entry
  store i32 128, ptr %retval, align 4
  br label %return

sw.bb11:                                          ; preds = %entry
  store i32 128, ptr %retval, align 4
  br label %return

sw.bb12:                                          ; preds = %entry
  store i32 256, ptr %retval, align 4
  br label %return

sw.default:                                       ; preds = %entry
  br label %sw.epilog

sw.epilog:                                        ; preds = %sw.default
  store i32 0, ptr %retval, align 4
  br label %return

return:                                           ; preds = %sw.epilog, %sw.bb12, %sw.bb11, %sw.bb10, %sw.bb9, %sw.bb8, %sw.bb7, %sw.bb6, %sw.bb5, %sw.bb4, %sw.bb3, %sw.bb2, %sw.bb1, %sw.bb
  %1 = load i32, ptr %retval, align 4
  ret i32 %1
}