; Function Attrs: mustprogress nofree norecurse nosync nounwind willreturn memory(none) uwtable
define internal fastcc noundef i32 @_ZN5arrowL9bit_widthENS_4Type4typeE(i32 noundef %type_id) unnamed_addr #19 {
entry:
  %switch.tableidx = add i32 %type_id, -1
  %0 = icmp ult i32 %switch.tableidx, 37
  br i1 %0, label %switch.lookup, label %return

switch.lookup:                                    ; preds = %entry
  %1 = zext nneg i32 %switch.tableidx to i64
  %switch.gep = getelementptr inbounds [37 x i32], ptr @switch.table._ZN5arrowL9bit_widthENS_4Type4typeE, i64 0, i64 %1
  %switch.load = load i32, ptr %switch.gep, align 4
  br label %return

return:                                           ; preds = %entry, %switch.lookup
  %retval.0 = phi i32 [ %switch.load, %switch.lookup ], [ 0, %entry ]
  ret i32 %retval.0
}